; Function Attrs: mustprogress nofree norecurse nosync nounwind willreturn memory(read, inaccessiblemem: none) uwtable
define internal range(i32 -1, 2) i32 @COVER_cmp8(ptr noundef readonly captures(none) %0, ptr noundef readonly captures(none) %1, ptr noundef readonly captures(none) %2) unnamed_addr #17 {
  %4 = getelementptr inbounds nuw i8, ptr %0, i64 80
  %5 = load i32, ptr %4, align 8, !tbaa !41
  %6 = icmp eq i32 %5, 8
  %7 = shl i32 %5, 3
  %8 = zext nneg i32 %7 to i64
  %notmask = shl nsw i64 -1, %8
  %9 = xor i64 %notmask, -1
  %10 = select i1 %6, i64 -1, i64 %9
  %11 = load ptr, ptr %0, align 8, !tbaa !36
  %12 = load i32, ptr %1, align 4, !tbaa !19
  %13 = zext i32 %12 to i64
  %14 = getelementptr inbounds nuw i8, ptr %11, i64 %13
  %.val = load i64, ptr %14, align 1, !tbaa !4
  %15 = and i64 %10, %.val
  %16 = load i32, ptr %2, align 4, !tbaa !19
  %17 = zext i32 %16 to i64
  %18 = getelementptr inbounds nuw i8, ptr %11, i64 %17
  %.val15 = load i64, ptr %18, align 1, !tbaa !4
  %19 = and i64 %.val15, %10
  %.0 = tail call i32 @llvm.ucmp.i32.i64(i64 %15, i64 %19)
  ret i32 %.0
}